(dp0
S'corps'
p1
(lp2
S' corpse'
p3
asS' dew'
p4
(lp5
S' due'
p6
aS'do'
p7
asS' waste'
p8
(lp9
S'waist'
p10
asS'through'
p11
(lp12
S' threw'
p13
aS' thorough'
p14
asS'farther'
p15
(lp16
S' further'
p17
asS'human'
p18
(lp19
S' humane'
p20
asS' averse'
p21
(lp22
S'adverse'
p23
asS' piece'
p24
(lp25
S'peace'
p26
asS'reverend'
p27
(lp28
S' reverent'
p29
asS'its'
p30
(lp31
S" it's"
p32
asS'to'
p33
(lp34
S' too'
p35
aS' two'
p36
asS'principal'
p37
(lp38
S' principle'
p39
asS'whose'
p40
(lp41
S" who's"
p42
asS' past'
p43
(lp44
S'passed'
p45
asS' cloths'
p46
(lp47
S'clothes'
p48
asS' illusion'
p49
(lp50
S'allusion'
p51
asS' strait'
p52
(lp53
S'straight'
p54
asS' site'
p55
(lp56
S' cite'
p57
aS'sight'
p58
asS'allude'
p59
(lp60
S' elude'
p61
asS'dairy'
p62
(lp63
S' diary'
p64
asS'board'
p65
(lp66
S' bored'
p67
asg17
(lp68
g15
asS' seen'
p69
(lp70
S'scene'
p71
asS'hoard'
p72
(lp73
S' horde'
p74
asS' borne'
p75
(lp76
S'born'
p77
asg7
(lp78
g4
ag6
asS'dominant'
p79
(lp80
S' dominate'
p81
asS' dying'
p82
(lp83
S'dyeing'
p84
asS'dessert'
p85
(lp86
S' desert'
p87
asS'capital'
p88
(lp89
S' capitol'
p90
asg58
(lp91
g55
ag57
asS' mettle'
p92
(lp93
S'metal'
p94
aS' medal'
p95
asS'discreet'
p96
(lp97
S' discrete'
p98
asS' there'
p99
(lp100
S" they're"
p101
aS'their'
p102
asS'know'
p103
(lp104
S' no'
p105
asS'altogether'
p106
(lp107
S' all together'
p108
asS' assistants'
p109
(lp110
S'assistance'
p111
asS'affect'
p112
(lp113
S' effect'
p114
asS' advise'
p115
(lp116
S'advice'
p117
asS' minor'
p118
(lp119
S'miner'
p120
asS' then'
p121
(lp122
S'than'
p123
asg20
(lp124
g18
asS'meat'
p125
(lp126
S' meet'
p127
asS'die'
p128
(lp129
S' dye'
p130
asg114
(lp131
g112
asS'lightning'
p132
(lp133
S' lightening'
p134
asg84
(lp135
g82
asS'a lot'
p136
(lp137
S' allot'
p138
asS' rationale'
p139
(lp140
S'rational'
p141
asS' besides'
p142
(lp143
S'beside'
p144
asS'stationary'
p145
(lp146
S' stationery'
p147
asg48
(lp148
g46
asg134
(lp149
g132
asS" you're"
p150
(lp151
S' yore'
p152
aS'your'
p153
asS'right'
p154
(lp155
S' rite'
p156
aS' write'
p157
asg51
(lp158
g49
asS'fair'
p159
(lp160
S' fare'
p161
asS' whether'
p162
(lp163
S' wether'
p164
aS'weather'
p165
asg98
(lp166
g96
asg77
(lp167
g75
asS'taught'
p168
(lp169
S' taut'
p170
asS'bare'
p171
(lp172
S' bear'
p173
asS'are'
p174
(lp175
S' our'
p176
asS' lose'
p177
(lp178
S'loose'
p179
asS'ascent'
p180
(lp181
S'assent'
p182
aS'accent'
p183
asS'conscience'
p184
(lp185
S' conscious'
p186
asS'canvas'
p187
(lp188
S' canvass'
p189
asS'lead'
p190
(lp191
S' led'
p192
asS' devise'
p193
(lp194
S'device'
p195
asg111
(lp196
g109
asS'waive'
p197
(lp198
S' wave'
p199
asg120
(lp200
g118
asS'eminent'
p201
(lp202
S' imminent'
p203
asS' raze'
p204
(lp205
S'raise'
p206
asS' course'
p207
(lp208
S'coarse'
p209
asS' morale'
p210
(lp211
S'moral'
p212
asg141
(lp213
g139
asg189
(lp214
g187
asS'forth'
p215
(lp216
S' fourth'
p217
asg6
(lp218
g7
ag4
asg176
(lp219
g174
asg179
(lp220
g177
asS' angle'
p221
(lp222
S'angel'
p223
asS' since'
p224
(lp225
S'sense'
p226
asS'weak'
p227
(lp228
S' week'
p229
asS'complement'
p230
(lp231
S' compliment'
p232
asS' latter'
p233
(lp234
S'later'
p235
asS'envelop'
p236
(lp237
S' envelope'
p238
asg35
(lp239
g36
ag33
asS' new'
p240
(lp241
S'knew'
p242
asg67
(lp243
g65
asg147
(lp244
g145
asg81
(lp245
g79
asg156
(lp246
g157
ag154
asS'aisle'
p247
(lp248
S' isle'
p249
asS' chose'
p250
(lp251
S'choose'
p252
asS' respectively'
p253
(lp254
S'respectfully'
p255
asS'where'
p256
(lp257
S' were'
p258
asS'quiet'
p259
(lp260
S' quite'
p261
asS' breathe'
p262
(lp263
S'breath'
p264
asS'personal'
p265
(lp266
S' personnel'
p267
asg64
(lp268
g62
asS' by'
p269
(lp270
S'buy'
p271
asS' all ready'
p272
(lp273
S'already'
p274
asS'road'
p275
(lp276
S' rode'
p277
asg95
(lp278
g92
ag94
asg274
(lp279
g272
asg186
(lp280
g184
asS'presence'
p281
(lp282
S' presents'
p283
asS' proceed'
p284
(lp285
S'precede'
p286
asg71
(lp287
g69
asg101
(lp288
g102
ag99
asg164
(lp289
g165
ag162
asS'patience'
p290
(lp291
S' patients'
p292
asg165
(lp293
g162
ag164
asg212
(lp294
g210
asg138
(lp295
g136
asS'boar'
p296
(lp297
S' bore'
p298
asg153
(lp299
g150
ag152
asS' illicit'
p300
(lp301
S'elicit'
p302
asS' whole'
p303
(lp304
S'hole'
p305
asg206
(lp306
g204
asS' dissent'
p307
(lp308
S'descent'
p309
asS' formerly'
p310
(lp311
S'formally'
p312
asg13
(lp313
g14
ag11
asg90
(lp314
g88
asg183
(lp315
g180
ag182
asg264
(lp316
g262
asg102
(lp317
g99
ag101
asg61
(lp318
g59
asg209
(lp319
g207
asg45
(lp320
g43
asS' peddle'
p321
(lp322
S'pedal'
p323
aS' petal'
p324
asg108
(lp325
g106
asg252
(lp326
g250
asg74
(lp327
g72
asg271
(lp328
g269
asg312
(lp329
g310
asg203
(lp330
g201
asS'altar'
p331
(lp332
S' alter'
p333
asg267
(lp334
g265
asg3
(lp335
g1
asg283
(lp336
g281
asS'hear'
p337
(lp338
S' here'
p339
asg305
(lp340
g303
asg249
(lp341
g247
asg123
(lp342
g121
asg333
(lp343
g331
asg232
(lp344
g230
asg229
(lp345
g227
asS' lesson'
p346
(lp347
S'lessen'
p348
asS'plain'
p349
(lp350
S' plane'
p351
asg54
(lp352
g52
asg348
(lp353
g346
asg173
(lp354
g171
asg351
(lp355
g349
asS' tract'
p356
(lp357
S'track'
p358
asS' every'
p359
(lp360
S'everyday'
p361
asg152
(lp362
g153
ag150
asg324
(lp363
g321
ag323
asg286
(lp364
g284
asg192
(lp365
g190
asg39
(lp366
g37
asg223
(lp367
g221
asg94
(lp368
g95
ag92
asg170
(lp369
g168
asg182
(lp370
g183
ag180
asS' counsel'
p371
(lp372
S'council'
p373
asS'accept'
p374
(lp375
S' except'
p376
asS' reign'
p377
(lp378
S' rein'
p379
aS'rain'
p380
asS'heard'
p381
(lp382
S' herd'
p383
asg302
(lp384
g300
asg292
(lp385
g290
asS'brake'
p386
(lp387
S' break'
p388
asg199
(lp389
g197
asg373
(lp390
g371
asg226
(lp391
g224
asg258
(lp392
g256
asS' may'
p393
(lp394
S'maybe'
p395
asg361
(lp396
g359
asg379
(lp397
g380
ag377
asg309
(lp398
g307
asg127
(lp399
g125
asg26
(lp400
g24
asg277
(lp401
g275
asg144
(lp402
g142
asg23
(lp403
g21
asS' pique'
p404
(lp405
S'peak'
p406
aS' peek'
p407
asS'which'
p408
(lp409
S' witch'
p410
asS' guerrilla'
p411
(lp412
S'gorilla'
p413
asg255
(lp414
g253
asg298
(lp415
g296
asg29
(lp416
g27
asg105
(lp417
g103
asg32
(lp418
g30
asg117
(lp419
g115
asg242
(lp420
g240
asg376
(lp421
g374
asg380
(lp422
g377
ag379
asg14
(lp423
g11
ag13
asg157
(lp424
g154
ag156
asg358
(lp425
g356
asg406
(lp426
g407
ag404
asg217
(lp427
g215
asg195
(lp428
g193
asg323
(lp429
g324
ag321
asg57
(lp430
g58
ag55
asg407
(lp431
g404
ag406
asg161
(lp432
g159
asg10
(lp433
g8
asg42
(lp434
g40
asg395
(lp435
g393
asg235
(lp436
g233
asg261
(lp437
g259
asg238
(lp438
g236
asg383
(lp439
g381
asg339
(lp440
g337
asg413
(lp441
g411
asg388
(lp442
g386
asg410
(lp443
g408
asg36
(lp444
g33
ag35
asg87
(lp445
g85
asg130
(lp446
g128
as.